target datalayout = "e-m:e-p270:32:32-p271:32:32-p272:64:64-i64:64-i128:128-f80:128-n8:16:32:64-S128"
target triple = "x86_64-pc-linux-gnu"

%struct.WebPAnimDecoderOptions = type { i32, i32, [7 x i32] }

; Function Attrs: nounwind uwtable
define internal void @DefaultDecoderOptions(ptr noundef %0) #0 {
  %2 = alloca ptr, align 8
  store ptr %0, ptr %2, align 8, !tbaa !3
  %3 = load ptr, ptr %2, align 8, !tbaa !3
  %4 = getelementptr inbounds nuw %struct.WebPAnimDecoderOptions, ptr %3, i32 0, i32 0
  store i32 1, ptr %4, align 4, !tbaa !10
  %5 = load ptr, ptr %2, align 8, !tbaa !3
  %6 = getelementptr inbounds nuw %struct.WebPAnimDecoderOptions, ptr %5, i32 0, i32 1
  store i32 0, ptr %6, align 4, !tbaa !12
  ret void
}

; Function Attrs: nounwind uwtable
define i32 @WebPAnimDecoderOptionsInitInternal(ptr noundef %0, i32 noundef %1) #0 {
  %3 = alloca i32, align 4
  %4 = alloca ptr, align 8
  %5 = alloca i32, align 4
  store ptr %0, ptr %4, align 8, !tbaa !3
  store i32 %1, ptr %5, align 4, !tbaa !8
  %6 = load ptr, ptr %4, align 8, !tbaa !3
  %7 = icmp eq ptr %6, null
  br i1 %7, label %12, label %8

8:                                                ; preds = %2
  %9 = load i32, ptr %5, align 4, !tbaa !8
  %10 = ashr i32 %9, 8
  %11 = icmp ne i32 %10, 1
  br i1 %11, label %12, label %13

12:                                               ; preds = %8, %2
  store i32 0, ptr %3, align 4
  br label %15

13:                                               ; preds = %8
  %14 = load ptr, ptr %4, align 8, !tbaa !3
  call void @DefaultDecoderOptions(ptr noundef %14)
  store i32 1, ptr %3, align 4
  br label %15

15:                                               ; preds = %13, %12
  %16 = load i32, ptr %3, align 4
  ret i32 %16
}