; Function Attrs: mustprogress nofree norecurse nosync nounwind willreturn memory(argmem: write) uwtable
define range(i32 0, 2) i32 @WebPAnimDecoderOptionsInitInternal(ptr noundef writeonly captures(address_is_null) %0, i32 noundef %1) local_unnamed_addr #0 {
  %3 = icmp ne ptr %0, null
  %.mask = and i32 %1, -256
  %.not = icmp eq i32 %.mask, 256
  %or.cond = and i1 %3, %.not
  br i1 %or.cond, label %4, label %6

4:                                                ; preds = %2
  store i32 1, ptr %0, align 4, !tbaa !3
  %5 = getelementptr inbounds nuw i8, ptr %0, i64 4
  store i32 0, ptr %5, align 4, !tbaa !8
  br label %6

6:                                                ; preds = %2, %4
  %.0 = phi i32 [ 1, %4 ], [ 0, %2 ]
  ret i32 %.0
}